(imap
EECSMap
p0
(dp1
S'costmap_size_y'
p2
I8
sS'horizontalWalls'
p3
(lp4
(lp5
I1
aI1
aI1
aI1
aI1
aI1
aI1
aI1
aa(lp6
I0
aI1
aI1
aI1
aI0
aI0
aI0
aI0
aa(lp7
I1
aI1
aI1
aI0
aI0
aI0
aI0
aI0
aa(lp8
I0
aI0
aI0
aI0
aI0
aI0
aI0
aI0
aa(lp9
I0
aI0
aI0
aI0
aI0
aI0
aI0
aI0
aa(lp10
I0
aI0
aI0
aI0
aI0
aI0
aI0
aI0
aa(lp11
I0
aI0
aI0
aI0
aI0
aI0
aI0
aI0
aa(lp12
I0
aI0
aI0
aI0
aI0
aI0
aI0
aI0
aa(lp13
I1
aI1
aI1
aI1
aI1
aI1
aI1
aI1
aasS'verticalWalls'
p14
(lp15
(lp16
I1
aI0
aI0
aI1
aI0
aI0
aI0
aI0
aI1
aa(lp17
I1
aI0
aI0
aI0
aI1
aI0
aI0
aI0
aI1
aa(lp18
I1
aI0
aI0
aI0
aI0
aI0
aI0
aI0
aI1
aa(lp19
I1
aI0
aI0
aI0
aI0
aI0
aI0
aI0
aI1
aa(lp20
I1
aI0
aI0
aI0
aI0
aI0
aI0
aI0
aI1
aa(lp21
I1
aI0
aI0
aI0
aI0
aI0
aI0
aI0
aI1
aa(lp22
I1
aI0
aI0
aI0
aI0
aI0
aI0
aI0
aI1
aa(lp23
I1
aI0
aI0
aI0
aI0
aI0
aI0
aI0
aI1
aasS'costmap_size_x'
p24
I8
sS'obstacle_size_y'
p25
I8
sS'obstacle_size_x'
p26
I8
sS'costMap'
p27
(lp28
(lp29
I4
aI5
aI6
aI1
aI1000
aI1000
aI1000
aI1000
aa(lp30
I3
aI2
aI1
aI0
aI1
aI1000
aI1000
aI1000
aa(lp31
I1000
aI1000
aI1000
aI1
aI1000
aI1000
aI1000
aI1000
aa(lp32
I1000
aI1000
aI1000
aI1000
aI1000
aI1000
aI1000
aI1000
aa(lp33
I1000
aI1000
aI1000
aI1000
aI1000
aI1000
aI1000
aI1000
aa(lp34
I1000
aI1000
aI1000
aI1000
aI1000
aI1000
aI1000
aI1000
aa(lp35
I1000
aI1000
aI1000
aI1000
aI1000
aI1000
aI1000
aI1000
aa(lp36
I1000
aI1000
aI1000
aI1000
aI1000
aI1000
aI1000
aI1000
aasb.