(lp0
(lp1
F0.1
aI1000
aI32
aa(lp2
F0.2
aI1000
aI51
aa(lp3
F0.3
aI1000
aI67
aa(lp4
F0.4
aI1000
aI83
aa(lp5
F0.5
aI1000
aI100
aa(lp6
F0.6
aI1000
aI118
aa(lp7
F0.7
aI1000
aI130
aa(lp8
F0.8
aI1000
aI143
aa(lp9
F0.9
aI1000
aI162
aa(lp10
F1.0
aI1000
aI179
aa(lp11
F1.1
aI1000
aI197
aa(lp12
F1.2
aI1000
aI211
aa(lp13
F1.3
aI1000
aI228
aa(lp14
F1.4
aI1000
aI239
aa(lp15
F1.5
aI1000
aI257
aa(lp16
F1.6
aI1000
aI273
aa(lp17
F1.7
aI1000
aI290
aa(lp18
F1.8
aI1000
aI307
aa(lp19
F1.9
aI1000
aI321
aa(lp20
F2.0
aI1000
aI334
aa(lp21
F0.1
aI500
aI23
aa(lp22
F0.2
aI500
aI27
aa(lp23
F0.3
aI500
aI34
aa(lp24
F0.4
aI500
aI42
aa(lp25
F0.5
aI500
aI56
aa(lp26
F0.6
aI500
aI64
aa(lp27
F0.7
aI500
aI73
aa(lp28
F0.8
aI500
aI85
aa(lp29
F0.9
aI500
aI95
aa(lp30
F1.0
aI500
aI105
aa(lp31
F1.1
aI500
aI111
aa(lp32
F1.2
aI500
aI121
aa(lp33
F1.3
aI500
aI133
aa(lp34
F1.4
aI500
aI145
aa(lp35
F1.5
aI500
aI150
aa(lp36
F1.6
aI500
aI160
aa(lp37
F1.7
aI500
aI170
aa(lp38
F1.8
aI500
aI177
aa(lp39
F1.9
aI500
aI185
aa(lp40
F2.0
aI500
aI193
aa(lp41
F0.1
aI700
aI27
aa(lp42
F0.2
aI700
aI37
aa(lp43
F0.3
aI700
aI54
aa(lp44
F0.4
aI700
aI63
aa(lp45
F0.5
aI700
aI77
aa(lp46
F0.6
aI700
aI89
aa(lp47
F0.7
aI700
aI103
aa(lp48
F0.8
aI700
aI115
aa(lp49
F0.9
aI700
aI128
aa(lp50
F1.0
aI700
aI142
aa(lp51
F1.1
aI700
aI157
aa(lp52
F1.2
aI700
aI165
aa(lp53
F1.3
aI700
aI177
aa(lp54
F1.4
aI700
aI192
aa(lp55
F1.5
aI700
aI205
aa(lp56
F1.6
aI700
aI213
aa(lp57
F1.7
aI700
aI225
aa(lp58
F1.8
aI700
aI237
aa(lp59
F1.9
aI700
aI257
aa(lp60
F2.0
aI700
aI264
aa(lp61
F0.1
aI800
aI29
aa(lp62
F0.2
aI800
aI39
aa(lp63
F0.3
aI800
aI57
aa(lp64
F0.4
aI800
aI76
aa(lp65
F0.5
aI800
aI86
aa(lp66
F0.6
aI800
aI102
aa(lp67
F0.7
aI800
aI117
aa(lp68
F0.8
aI800
aI131
aa(lp69
F0.9
aI800
aI142
aa(lp70
F1.0
aI800
aI157
aa(lp71
F1.1
aI800
aI171
aa(lp72
F1.2
aI800
aI185
aa(lp73
F1.3
aI800
aI197
aa(lp74
F1.4
aI800
aI218
aa(lp75
F1.5
aI800
aI223
aa(lp76
F1.6
aI800
aI239
aa(lp77
F1.7
aI800
aI250
aa(lp78
F1.8
aI800
aI268
aa(lp79
F1.9
aI800
aI282
aa(lp80
F2.0
aI800
aI299
aa(lp81
F0.1
aI600
aI21
aa(lp82
F0.2
aI600
aI32
aa(lp83
F0.3
aI600
aI44
aa(lp84
F0.4
aI600
aI55
aa(lp85
F0.5
aI600
aI65
aa(lp86
F0.6
aI600
aI77
aa(lp87
F0.7
aI600
aI88
aa(lp88
F0.8
aI600
aI98
aa(lp89
F0.9
aI600
aI108
aa(lp90
F1.0
aI600
aI118
aa(lp91
F1.1
aI600
aI130
aa(lp92
F1.2
aI600
aI141
aa(lp93
F1.3
aI600
aI151
aa(lp94
F1.4
aI600
aI162
aa(lp95
F1.5
aI600
aI171
aa(lp96
F1.6
aI600
aI185
aa(lp97
F1.7
aI600
aI192
aa(lp98
F1.8
aI600
aI202
aa(lp99
F1.9
aI600
aI213
aa(lp100
F2.0
aI600
aI223
aa(lp101
F0.1
aI900
aI31
aa(lp102
F0.2
aI900
aI45
aa(lp103
F0.3
aI900
aI67
aa(lp104
F0.4
aI900
aI79
aa(lp105
F0.5
aI900
aI100
aa(lp106
F0.6
aI900
aI113
aa(lp107
F0.7
aI900
aI131
aa(lp108
F0.8
aI900
aI147
aa(lp109
F0.9
aI900
aI161
aa(lp110
F1.0
aI900
aI172
aa(lp111
F1.1
aI900
aI191
aa(lp112
F1.2
aI900
aI206
aa(lp113
F1.3
aI900
aI220
aa(lp114
F1.4
aI900
aI239
aa(lp115
F1.5
aI900
aI256
aa(lp116
F1.6
aI900
aI273
aa(lp117
F1.7
aI900
aI288
aa(lp118
F1.8
aI900
aI323
aa(lp119
F1.9
aI900
aI334
aa(lp120
F2.0
aI900
aI351
aa.