(lp0
(lp1
F0.1
aI1000
aI32
aa(lp2
F0.2
aI1000
aI51
aa(lp3
F0.3
aI1000
aI67
aa(lp4
F0.4
aI1000
aI83
aa(lp5
F0.5
aI1000
aI100
aa(lp6
F0.6
aI1000
aI118
aa(lp7
F0.7
aI1000
aI130
aa(lp8
F0.8
aI1000
aI143
aa(lp9
F0.9
aI1000
aI162
aa(lp10
F1.0
aI1000
aI179
aa(lp11
F1.1
aI1000
aI197
aa(lp12
F1.2
aI1000
aI211
aa(lp13
F1.3
aI1000
aI228
aa(lp14
F1.4
aI1000
aI239
aa(lp15
F1.5
aI1000
aI257
aa(lp16
F1.6
aI1000
aI273
aa(lp17
F1.7
aI1000
aI290
aa(lp18
F1.8
aI1000
aI307
aa(lp19
F1.9
aI1000
aI321
aa(lp20
F2.0
aI1000
aI334
aa.